; Function Attrs: mustprogress nofree norecurse nosync nounwind willreturn memory(argmem: read) uwtable
define hidden { double, double } @_Z4lerpRKN2cv6Point_IdEES3_RKd(ptr noundef nonnull readonly align 8 captures(none) dereferenceable(16) %0, ptr noundef nonnull readonly align 8 captures(none) dereferenceable(16) %1, ptr noundef nonnull readonly align 8 captures(none) dereferenceable(8) %2) local_unnamed_addr #4 {
  %4 = load double, ptr %2, align 8, !tbaa !10
  %5 = fsub double 1.000000e+00, %4
  %6 = load double, ptr %0, align 8, !tbaa !12
  %7 = load double, ptr %1, align 8, !tbaa !12
  %8 = fmul double %4, %7
  %9 = tail call double @llvm.fmuladd.f64(double %5, double %6, double %8)
  %10 = getelementptr inbounds nuw i8, ptr %0, i64 8
  %11 = load double, ptr %10, align 8, !tbaa !14
  %12 = getelementptr inbounds nuw i8, ptr %1, i64 8
  %13 = load double, ptr %12, align 8, !tbaa !14
  %14 = fmul double %4, %13
  %15 = tail call double @llvm.fmuladd.f64(double %5, double %11, double %14)
  %.fca.0.insert = insertvalue { double, double } poison, double %9, 0
  %.fca.1.insert = insertvalue { double, double } %.fca.0.insert, double %15, 1
  ret { double, double } %.fca.1.insert
}